target datalayout = "e-m:e-p270:32:32-p271:32:32-p272:64:64-i64:64-i128:128-f80:128-n8:16:32:64-S128"
target triple = "x86_64-pc-linux-gnu"

; Function Attrs: nounwind uwtable
define internal i32 @pg_euccn2wchar_with_len(ptr noundef %0, ptr noundef %1, i32 noundef %2) #1 {
  %4 = alloca ptr, align 8
  %5 = alloca ptr, align 8
  %6 = alloca i32, align 4
  %7 = alloca i32, align 4
  store ptr %0, ptr %4, align 8
  store ptr %1, ptr %5, align 8
  store i32 %2, ptr %6, align 4
  call void @llvm.lifetime.start.p0(i64 4, ptr %7) #7
  store i32 0, ptr %7, align 4
  br label %8

8:                                                ; preds = %107, %3
  %9 = load i32, ptr %6, align 4
  %10 = icmp sgt i32 %9, 0
  br i1 %10, label %11, label %16

11:                                               ; preds = %8
  %12 = load ptr, ptr %4, align 8
  %13 = load i8, ptr %12, align 1
  %14 = zext i8 %13 to i32
  %15 = icmp ne i32 %14, 0
  br label %16

16:                                               ; preds = %11, %8
  %17 = phi i1 [ false, %8 ], [ %15, %11 ]
  br i1 %17, label %18, label %112

18:                                               ; preds = %16
  %19 = load ptr, ptr %4, align 8
  %20 = load i8, ptr %19, align 1
  %21 = zext i8 %20 to i32
  %22 = icmp eq i32 %21, 142
  br i1 %22, label %23, label %45

23:                                               ; preds = %18
  %24 = load i32, ptr %6, align 4
  %25 = icmp sge i32 %24, 3
  br i1 %25, label %26, label %45

26:                                               ; preds = %23
  %27 = load ptr, ptr %4, align 8
  %28 = getelementptr inbounds nuw i8, ptr %27, i32 1
  store ptr %28, ptr %4, align 8
  %29 = load ptr, ptr %4, align 8
  %30 = getelementptr inbounds nuw i8, ptr %29, i32 1
  store ptr %30, ptr %4, align 8
  %31 = load i8, ptr %29, align 1
  %32 = zext i8 %31 to i32
  %33 = shl i32 %32, 8
  %34 = or i32 9306112, %33
  %35 = load ptr, ptr %5, align 8
  store i32 %34, ptr %35, align 4
  %36 = load ptr, ptr %4, align 8
  %37 = getelementptr inbounds nuw i8, ptr %36, i32 1
  store ptr %37, ptr %4, align 8
  %38 = load i8, ptr %36, align 1
  %39 = zext i8 %38 to i32
  %40 = load ptr, ptr %5, align 8
  %41 = load i32, ptr %40, align 4
  %42 = or i32 %41, %39
  store i32 %42, ptr %40, align 4
  %43 = load i32, ptr %6, align 4
  %44 = sub i32 %43, 3
  store i32 %44, ptr %6, align 4
  br label %107

45:                                               ; preds = %23, %18
  %46 = load ptr, ptr %4, align 8
  %47 = load i8, ptr %46, align 1
  %48 = zext i8 %47 to i32
  %49 = icmp eq i32 %48, 143
  br i1 %49, label %50, label %72

50:                                               ; preds = %45
  %51 = load i32, ptr %6, align 4
  %52 = icmp sge i32 %51, 3
  br i1 %52, label %53, label %72

53:                                               ; preds = %50
  %54 = load ptr, ptr %4, align 8
  %55 = getelementptr inbounds nuw i8, ptr %54, i32 1
  store ptr %55, ptr %4, align 8
  %56 = load ptr, ptr %4, align 8
  %57 = getelementptr inbounds nuw i8, ptr %56, i32 1
  store ptr %57, ptr %4, align 8
  %58 = load i8, ptr %56, align 1
  %59 = zext i8 %58 to i32
  %60 = shl i32 %59, 8
  %61 = or i32 9371648, %60
  %62 = load ptr, ptr %5, align 8
  store i32 %61, ptr %62, align 4
  %63 = load ptr, ptr %4, align 8
  %64 = getelementptr inbounds nuw i8, ptr %63, i32 1
  store ptr %64, ptr %4, align 8
  %65 = load i8, ptr %63, align 1
  %66 = zext i8 %65 to i32
  %67 = load ptr, ptr %5, align 8
  %68 = load i32, ptr %67, align 4
  %69 = or i32 %68, %66
  store i32 %69, ptr %67, align 4
  %70 = load i32, ptr %6, align 4
  %71 = sub i32 %70, 3
  store i32 %71, ptr %6, align 4
  br label %106

72:                                               ; preds = %50, %45
  %73 = load ptr, ptr %4, align 8
  %74 = load i8, ptr %73, align 1
  %75 = zext i8 %74 to i32
  %76 = and i32 %75, 128
  %77 = icmp ne i32 %76, 0
  br i1 %77, label %78, label %97

78:                                               ; preds = %72
  %79 = load i32, ptr %6, align 4
  %80 = icmp sge i32 %79, 2
  br i1 %80, label %81, label %97

81:                                               ; preds = %78
  %82 = load ptr, ptr %4, align 8
  %83 = getelementptr inbounds nuw i8, ptr %82, i32 1
  store ptr %83, ptr %4, align 8
  %84 = load i8, ptr %82, align 1
  %85 = zext i8 %84 to i32
  %86 = shl i32 %85, 8
  %87 = load ptr, ptr %5, align 8
  store i32 %86, ptr %87, align 4
  %88 = load ptr, ptr %4, align 8
  %89 = getelementptr inbounds nuw i8, ptr %88, i32 1
  store ptr %89, ptr %4, align 8
  %90 = load i8, ptr %88, align 1
  %91 = zext i8 %90 to i32
  %92 = load ptr, ptr %5, align 8
  %93 = load i32, ptr %92, align 4
  %94 = or i32 %93, %91
  store i32 %94, ptr %92, align 4
  %95 = load i32, ptr %6, align 4
  %96 = sub i32 %95, 2
  store i32 %96, ptr %6, align 4
  br label %105

97:                                               ; preds = %78, %72
  %98 = load ptr, ptr %4, align 8
  %99 = getelementptr inbounds nuw i8, ptr %98, i32 1
  store ptr %99, ptr %4, align 8
  %100 = load i8, ptr %98, align 1
  %101 = zext i8 %100 to i32
  %102 = load ptr, ptr %5, align 8
  store i32 %101, ptr %102, align 4
  %103 = load i32, ptr %6, align 4
  %104 = add i32 %103, -1
  store i32 %104, ptr %6, align 4
  br label %105

105:                                              ; preds = %97, %81
  br label %106

106:                                              ; preds = %105, %53
  br label %107

107:                                              ; preds = %106, %26
  %108 = load ptr, ptr %5, align 8
  %109 = getelementptr inbounds nuw i32, ptr %108, i32 1
  store ptr %109, ptr %5, align 8
  %110 = load i32, ptr %7, align 4
  %111 = add i32 %110, 1
  store i32 %111, ptr %7, align 4
  br label %8, !llvm.loop !9

112:                                              ; preds = %16
  %113 = load ptr, ptr %5, align 8
  store i32 0, ptr %113, align 4
  %114 = load i32, ptr %7, align 4
  call void @llvm.lifetime.end.p0(i64 4, ptr %7) #7
  ret i32 %114
}