; Function Attrs: nofree norecurse nosync nounwind memory(argmem: readwrite) uwtable
define internal i32 @pg_euccn2wchar_with_len(ptr noundef readonly captures(none) %0, ptr noundef writeonly captures(none) %1, i32 noundef %2) #2 {
  %4 = icmp sgt i32 %2, 0
  br i1 %4, label %.lr.ph, label %.critedge

.lr.ph:                                           ; preds = %3, %44
  %.044 = phi i32 [ %47, %44 ], [ 0, %3 ]
  %.03643 = phi i32 [ %45, %44 ], [ %2, %3 ]
  %.03742 = phi ptr [ %46, %44 ], [ %1, %3 ]
  %.03841 = phi ptr [ %.139, %44 ], [ %0, %3 ]
  %5 = load i8, ptr %.03841, align 1
  %6 = zext i8 %5 to i32
  %.not = icmp eq i8 %5, 0
  br i1 %.not, label %.critedge, label %7

7:                                                ; preds = %.lr.ph
  %8 = icmp eq i8 %5, -114
  %9 = icmp samesign ugt i32 %.03643, 2
  %or.cond = and i1 %9, %8
  br i1 %or.cond, label %10, label %21

10:                                               ; preds = %7
  %11 = getelementptr inbounds nuw i8, ptr %.03841, i64 1
  %12 = getelementptr inbounds nuw i8, ptr %.03841, i64 2
  %13 = load i8, ptr %11, align 1
  %14 = zext i8 %13 to i32
  %15 = shl nuw nsw i32 %14, 8
  %16 = or disjoint i32 %15, 9306112
  store i32 %16, ptr %.03742, align 4
  %17 = getelementptr inbounds nuw i8, ptr %.03841, i64 3
  %18 = load i8, ptr %12, align 1
  %19 = zext i8 %18 to i32
  %20 = or disjoint i32 %16, %19
  br label %44

21:                                               ; preds = %7
  %22 = icmp eq i8 %5, -113
  %or.cond3 = and i1 %9, %22
  br i1 %or.cond3, label %23, label %34

23:                                               ; preds = %21
  %24 = getelementptr inbounds nuw i8, ptr %.03841, i64 1
  %25 = getelementptr inbounds nuw i8, ptr %.03841, i64 2
  %26 = load i8, ptr %24, align 1
  %27 = zext i8 %26 to i32
  %28 = shl nuw nsw i32 %27, 8
  %29 = or disjoint i32 %28, 9371648
  store i32 %29, ptr %.03742, align 4
  %30 = getelementptr inbounds nuw i8, ptr %.03841, i64 3
  %31 = load i8, ptr %25, align 1
  %32 = zext i8 %31 to i32
  %33 = or disjoint i32 %29, %32
  br label %44

34:                                               ; preds = %21
  %35 = icmp slt i8 %5, 0
  %36 = icmp ne i32 %.03643, 1
  %or.cond5 = and i1 %36, %35
  %37 = getelementptr inbounds nuw i8, ptr %.03841, i64 1
  br i1 %or.cond5, label %38, label %44

38:                                               ; preds = %34
  %39 = shl nuw nsw i32 %6, 8
  store i32 %39, ptr %.03742, align 4
  %40 = getelementptr inbounds nuw i8, ptr %.03841, i64 2
  %41 = load i8, ptr %37, align 1
  %42 = zext i8 %41 to i32
  %43 = or disjoint i32 %39, %42
  br label %44

44:                                               ; preds = %34, %23, %38, %10
  %.sink49 = phi i32 [ %33, %23 ], [ %43, %38 ], [ %20, %10 ], [ %6, %34 ]
  %.sink = phi i32 [ -3, %23 ], [ -2, %38 ], [ -3, %10 ], [ -1, %34 ]
  %.139 = phi ptr [ %30, %23 ], [ %40, %38 ], [ %17, %10 ], [ %37, %34 ]
  store i32 %.sink49, ptr %.03742, align 4
  %45 = add nsw i32 %.03643, %.sink
  %46 = getelementptr inbounds nuw i8, ptr %.03742, i64 4
  %47 = add i32 %.044, 1
  %48 = icmp sgt i32 %45, 0
  br i1 %48, label %.lr.ph, label %.critedge, !llvm.loop !9

.critedge:                                        ; preds = %.lr.ph, %44, %3
  %.037.lcssa = phi ptr [ %1, %3 ], [ %46, %44 ], [ %.03742, %.lr.ph ]
  %.0.lcssa = phi i32 [ 0, %3 ], [ %47, %44 ], [ %.044, %.lr.ph ]
  store i32 0, ptr %.037.lcssa, align 4
  ret i32 %.0.lcssa
}